; Function Attrs: mustprogress nounwind uwtable
define hidden void @_ZN12G1HeapRegion15clear_cardtableEv(ptr nocapture noundef nonnull readonly align 8 dereferenceable(136) %0) local_unnamed_addr #1 align 2 {
  %2 = load ptr, ptr @_ZN8Universe14_collectedHeapE, align 8
  %3 = getelementptr inbounds i8, ptr %2, i64 136
  %4 = load ptr, ptr %3, align 8
  %5 = load ptr, ptr %0, align 8
  %6 = getelementptr inbounds i8, ptr %0, i64 8
  %7 = load ptr, ptr %6, align 8
  %8 = ptrtoint ptr %7 to i64
  %9 = ptrtoint ptr %5 to i64
  %10 = sub i64 %8, %9
  %11 = lshr i64 %10, 3
  tail call void @_ZN9CardTable15clear_MemRegionE9MemRegion(ptr noundef nonnull align 8 dereferenceable(88) %4, ptr %5, i64 %11) #16
  ret void
}